target datalayout = "e-m:e-p270:32:32-p271:32:32-p272:64:64-i64:64-i128:128-f80:128-n8:16:32:64-S128"
target triple = "x86_64-pc-linux-gnu"

%struct.archive = type { i32, i32, ptr, i32, ptr, i32, i32, ptr, %struct.archive_string, ptr, i32, i32, ptr, ptr, i64, i64, i64, i8, i64 }
%struct.archive_string = type { ptr, i64, i64 }

; Function Attrs: nounwind uwtable
define dso_local void @archive_copy_error(ptr noundef %0, ptr noundef %1) #0 {
  %3 = alloca ptr, align 8
  %4 = alloca ptr, align 8
  store ptr %0, ptr %3, align 8, !tbaa !4
  store ptr %1, ptr %4, align 8, !tbaa !4
  %5 = load ptr, ptr %4, align 8, !tbaa !4
  %6 = getelementptr inbounds nuw %struct.archive, ptr %5, i32 0, i32 6
  %7 = load i32, ptr %6, align 4, !tbaa !9
  %8 = load ptr, ptr %3, align 8, !tbaa !4
  %9 = getelementptr inbounds nuw %struct.archive, ptr %8, i32 0, i32 6
  store i32 %7, ptr %9, align 4, !tbaa !9
  %10 = load ptr, ptr %3, align 8, !tbaa !4
  %11 = getelementptr inbounds nuw %struct.archive, ptr %10, i32 0, i32 8
  %12 = getelementptr inbounds nuw %struct.archive_string, ptr %11, i32 0, i32 1
  store i64 0, ptr %12, align 8, !tbaa !22
  %13 = load ptr, ptr %3, align 8, !tbaa !4
  %14 = getelementptr inbounds nuw %struct.archive, ptr %13, i32 0, i32 8
  %15 = load ptr, ptr %4, align 8, !tbaa !4
  %16 = getelementptr inbounds nuw %struct.archive, ptr %15, i32 0, i32 8
  call void @archive_string_concat(ptr noundef %14, ptr noundef %16)
  %17 = load ptr, ptr %3, align 8, !tbaa !4
  %18 = getelementptr inbounds nuw %struct.archive, ptr %17, i32 0, i32 8
  %19 = getelementptr inbounds nuw %struct.archive_string, ptr %18, i32 0, i32 0
  %20 = load ptr, ptr %19, align 8, !tbaa !25
  %21 = load ptr, ptr %3, align 8, !tbaa !4
  %22 = getelementptr inbounds nuw %struct.archive, ptr %21, i32 0, i32 7
  store ptr %20, ptr %22, align 8, !tbaa !17
  ret void
}