; Function Attrs: nounwind uwtable
define dso_local void @archive_copy_error(ptr noundef initializes((36, 40), (56, 64)) %0, ptr noundef %1) local_unnamed_addr #0 {
  %3 = getelementptr inbounds nuw i8, ptr %1, i64 36
  %4 = load i32, ptr %3, align 4, !tbaa !4
  %5 = getelementptr inbounds nuw i8, ptr %0, i64 36
  store i32 %4, ptr %5, align 4, !tbaa !4
  %6 = getelementptr inbounds nuw i8, ptr %0, i64 48
  %7 = getelementptr inbounds nuw i8, ptr %0, i64 56
  store i64 0, ptr %7, align 8, !tbaa !20
  %8 = getelementptr inbounds nuw i8, ptr %1, i64 48
  tail call void @archive_string_concat(ptr noundef nonnull %6, ptr noundef nonnull %8) #18
  %9 = load ptr, ptr %6, align 8, !tbaa !21
  %10 = getelementptr inbounds nuw i8, ptr %0, i64 40
  store ptr %9, ptr %10, align 8, !tbaa !15
  ret void
}